
main.elf:     file format elf32-littlearm


Disassembly of section .text:

08000000 <SP>:
 8000000:	20005001 	andcs	r5, r0, r1

08000004 <RESET>:
 8000004:	08000155 	stmdaeq	r0, {r0, r2, r4, r6, r8}

08000008 <NMI_HANDLER>:
 8000008:	0800017b 	stmdaeq	r0, {r0, r1, r3, r4, r5, r6, r8}

0800000c <HARD_FAULT>:
 800000c:	0800017f 	stmdaeq	r0, {r0, r1, r2, r3, r4, r5, r6, r8}

08000010 <MEMORY_FAULT>:
 8000010:	08000183 	stmdaeq	r0, {r0, r1, r7, r8}

08000014 <BUS_FAULT>:
 8000014:	08000187 	stmdaeq	r0, {r0, r1, r2, r7, r8}

08000018 <USAGE_FAULT>:
 8000018:	0800018b 	stmdaeq	r0, {r0, r1, r3, r7, r8}
	...

080000b0 <TIMER2_INTERRUPT>:
 80000b0:	0800016f 	stmdaeq	r0, {r0, r1, r2, r3, r5, r6, r8}

080000b4 <gpio_port_c_rcc_init>:
 80000b4:	b403      	push	{r0, r1}
 80000b6:	4936      	ldr	r1, [pc, #216]	; (8000190 <usage_fault+0x6>)
 80000b8:	f04f 60a0 	mov.w	r0, #83886080	; 0x5000000
 80000bc:	6008      	str	r0, [r1, #0]
 80000be:	f04f 0010 	mov.w	r0, #16
 80000c2:	4934      	ldr	r1, [pc, #208]	; (8000194 <usage_fault+0xa>)
 80000c4:	6008      	str	r0, [r1, #0]
 80000c6:	bc03      	pop	{r0, r1}
 80000c8:	4770      	bx	lr

080000ca <led_init>:
 80000ca:	b403      	push	{r0, r1}
 80000cc:	b500      	push	{lr}
 80000ce:	f7ff fff1 	bl	80000b4 <gpio_port_c_rcc_init>
 80000d2:	f85d eb04 	ldr.w	lr, [sp], #4
 80000d6:	4930      	ldr	r1, [pc, #192]	; (8000198 <usage_fault+0xe>)
 80000d8:	6808      	ldr	r0, [r1, #0]
 80000da:	f420 0070 	bic.w	r0, r0, #15728640	; 0xf00000
 80000de:	f440 1000 	orr.w	r0, r0, #2097152	; 0x200000
 80000e2:	6008      	str	r0, [r1, #0]
 80000e4:	492d      	ldr	r1, [pc, #180]	; (800019c <usage_fault+0x12>)
 80000e6:	6808      	ldr	r0, [r1, #0]
 80000e8:	f44f 5000 	mov.w	r0, #8192	; 0x2000
 80000ec:	f480 5000 	eor.w	r0, r0, #8192	; 0x2000
 80000f0:	bc03      	pop	{r0, r1}
 80000f2:	4770      	bx	lr

080000f4 <led_flash>:
 80000f4:	b403      	push	{r0, r1}
 80000f6:	4929      	ldr	r1, [pc, #164]	; (800019c <usage_fault+0x12>)
 80000f8:	6808      	ldr	r0, [r1, #0]
 80000fa:	f480 5000 	eor.w	r0, r0, #8192	; 0x2000
 80000fe:	6008      	str	r0, [r1, #0]
 8000100:	bc03      	pop	{r0, r1}
 8000102:	4770      	bx	lr

08000104 <timer2_init>:
 8000104:	b403      	push	{r0, r1}
 8000106:	4926      	ldr	r1, [pc, #152]	; (80001a0 <usage_fault+0x16>)
 8000108:	6808      	ldr	r0, [r1, #0]
 800010a:	f040 0001 	orr.w	r0, r0, #1
 800010e:	6008      	str	r0, [r1, #0]
 8000110:	4924      	ldr	r1, [pc, #144]	; (80001a4 <usage_fault+0x1a>)
 8000112:	6808      	ldr	r0, [r1, #0]
 8000114:	f040 0001 	orr.w	r0, r0, #1
 8000118:	6008      	str	r0, [r1, #0]
 800011a:	4923      	ldr	r1, [pc, #140]	; (80001a8 <usage_fault+0x1e>)
 800011c:	f04f 0001 	mov.w	r0, #1
 8000120:	6008      	str	r0, [r1, #0]
 8000122:	4922      	ldr	r1, [pc, #136]	; (80001ac <usage_fault+0x22>)
 8000124:	f04f 00f9 	mov.w	r0, #249	; 0xf9
 8000128:	4921      	ldr	r1, [pc, #132]	; (80001b0 <usage_fault+0x26>)
 800012a:	f04f 0010 	mov.w	r0, #16
 800012e:	6008      	str	r0, [r1, #0]
 8000130:	4920      	ldr	r1, [pc, #128]	; (80001b4 <usage_fault+0x2a>)
 8000132:	6808      	ldr	r0, [r1, #0]
 8000134:	f040 5080 	orr.w	r0, r0, #268435456	; 0x10000000
 8000138:	6008      	str	r0, [r1, #0]
 800013a:	491f      	ldr	r1, [pc, #124]	; (80001b8 <usage_fault+0x2e>)
 800013c:	f04f 500c 	mov.w	r0, #587202560	; 0x23000000
 8000140:	6008      	str	r0, [r1, #0]
 8000142:	f04f 4180 	mov.w	r1, #1073741824	; 0x40000000
 8000146:	6808      	ldr	r0, [r1, #0]
 8000148:	f040 0001 	orr.w	r0, r0, #1
 800014c:	6008      	str	r0, [r1, #0]
 800014e:	6008      	str	r0, [r1, #0]
 8000150:	bc03      	pop	{r0, r1}
 8000152:	4770      	bx	lr

08000154 <main>:
 8000154:	b500      	push	{lr}
 8000156:	f7ff ffb8 	bl	80000ca <led_init>
 800015a:	f7ff ffd3 	bl	8000104 <timer2_init>
 800015e:	f85d eb04 	ldr.w	lr, [sp], #4

08000162 <_main_loop>:
 8000162:	b500      	push	{lr}
 8000164:	4915      	ldr	r1, [pc, #84]	; (80001bc <usage_fault+0x32>)
 8000166:	f85d eb04 	ldr.w	lr, [sp], #4
 800016a:	e7fa      	b.n	8000162 <_main_loop>
 800016c:	4770      	bx	lr

0800016e <timer2_interupt>:
 800016e:	b500      	push	{lr}
 8000170:	f7ff ffc0 	bl	80000f4 <led_flash>
 8000174:	f85d eb04 	ldr.w	lr, [sp], #4
 8000178:	4770      	bx	lr

0800017a <nmi_fault>:
 800017a:	be00      	bkpt	0x0000
 800017c:	4770      	bx	lr

0800017e <hard_fault>:
 800017e:	be00      	bkpt	0x0000
 8000180:	4770      	bx	lr

08000182 <memory_fault>:
 8000182:	be00      	bkpt	0x0000
 8000184:	4770      	bx	lr

08000186 <bus_fault>:
 8000186:	be00      	bkpt	0x0000
 8000188:	4770      	bx	lr

0800018a <usage_fault>:
 800018a:	be00      	bkpt	0x0000
 800018c:	4770      	bx	lr
 800018e:	4770      	bx	lr
 8000190:	40021004 	andmi	r1, r2, r4
 8000194:	40021018 	andmi	r1, r2, r8, lsl r0
 8000198:	40011004 	andmi	r1, r1, r4
 800019c:	4001100c 	andmi	r1, r1, ip
 80001a0:	4002101c 	andmi	r1, r2, ip, lsl r0
 80001a4:	4000000c 	andmi	r0, r0, ip
 80001a8:	40000028 	andmi	r0, r0, r8, lsr #32
 80001ac:	4000002c 	andmi	r0, r0, ip, lsr #32
 80001b0:	40000004 	andmi	r0, r0, r4
 80001b4:	e000e100 	and	lr, r0, r0, lsl #2
 80001b8:	e000e41c 	and	lr, r0, ip, lsl r4
 80001bc:	40000024 	andmi	r0, r0, r4, lsr #32
