
main.elf:     file format elf32-littlearm


Disassembly of section .text:

08000000 <SP>:
 8000000:	20005001 	andcs	r5, r0, r1

08000004 <RESET>:
 8000004:	08000061 	stmdaeq	r0, {r0, r5, r6}

08000008 <NMI_HANDLER>:
 8000008:	08000089 	stmdaeq	r0, {r0, r3, r7}

0800000c <HARD_FAULT>:
 800000c:	0800008d 	stmdaeq	r0, {r0, r2, r3, r7}

08000010 <MEMORY_FAULT>:
 8000010:	08000091 	stmdaeq	r0, {r0, r4, r7}

08000014 <BUS_FAULT>:
 8000014:	08000095 	stmdaeq	r0, {r0, r2, r4, r7}

08000018 <USAGE_FAULT>:
 8000018:	08000099 	stmdaeq	r0, {r0, r3, r4, r7}

0800001c <gpio_port_c_rcc_init>:
 800001c:	b403      	push	{r0, r1}
 800001e:	491f      	ldr	r1, [pc, #124]	; (800009c <usage_fault+0x4>)
 8000020:	f04f 60a0 	mov.w	r0, #83886080	; 0x5000000
 8000024:	6008      	str	r0, [r1, #0]
 8000026:	f04f 0010 	mov.w	r0, #16
 800002a:	491d      	ldr	r1, [pc, #116]	; (80000a0 <usage_fault+0x8>)
 800002c:	6008      	str	r0, [r1, #0]
 800002e:	bc03      	pop	{r0, r1}
 8000030:	4770      	bx	lr

08000032 <led_init>:
 8000032:	b403      	push	{r0, r1}
 8000034:	b500      	push	{lr}
 8000036:	f7ff fff1 	bl	800001c <gpio_port_c_rcc_init>
 800003a:	f85d eb04 	ldr.w	lr, [sp], #4
 800003e:	4919      	ldr	r1, [pc, #100]	; (80000a4 <usage_fault+0xc>)
 8000040:	6808      	ldr	r0, [r1, #0]
 8000042:	f420 0070 	bic.w	r0, r0, #15728640	; 0xf00000
 8000046:	f440 1000 	orr.w	r0, r0, #2097152	; 0x200000
 800004a:	6008      	str	r0, [r1, #0]
 800004c:	bc03      	pop	{r0, r1}
 800004e:	4770      	bx	lr

08000050 <led_flash>:
 8000050:	b403      	push	{r0, r1}
 8000052:	4915      	ldr	r1, [pc, #84]	; (80000a8 <usage_fault+0x10>)
 8000054:	6808      	ldr	r0, [r1, #0]
 8000056:	f480 5000 	eor.w	r0, r0, #8192	; 0x2000
 800005a:	6008      	str	r0, [r1, #0]
 800005c:	bc03      	pop	{r0, r1}
 800005e:	4770      	bx	lr

08000060 <main>:
 8000060:	b500      	push	{lr}
 8000062:	f7ff ffe6 	bl	8000032 <led_init>
 8000066:	f85d eb04 	ldr.w	lr, [sp], #4

0800006a <_main_loop>:
 800006a:	b500      	push	{lr}
 800006c:	f7ff fff0 	bl	8000050 <led_flash>
 8000070:	f000 f804 	bl	800007c <wait>
 8000074:	f85d eb04 	ldr.w	lr, [sp], #4
 8000078:	e7f7      	b.n	800006a <_main_loop>
 800007a:	4770      	bx	lr

0800007c <wait>:
 800007c:	b401      	push	{r0}
 800007e:	480b      	ldr	r0, [pc, #44]	; (80000ac <usage_fault+0x14>)

08000080 <_wait_loop>:
 8000080:	3801      	subs	r0, #1
 8000082:	d1fd      	bne.n	8000080 <_wait_loop>
 8000084:	bc01      	pop	{r0}
 8000086:	4770      	bx	lr

08000088 <nmi_fault>:
 8000088:	be00      	bkpt	0x0000
 800008a:	4770      	bx	lr

0800008c <hard_fault>:
 800008c:	be00      	bkpt	0x0000
 800008e:	4770      	bx	lr

08000090 <memory_fault>:
 8000090:	be00      	bkpt	0x0000
 8000092:	4770      	bx	lr

08000094 <bus_fault>:
 8000094:	be00      	bkpt	0x0000
 8000096:	4770      	bx	lr

08000098 <usage_fault>:
 8000098:	be00      	bkpt	0x0000
 800009a:	4770      	bx	lr
 800009c:	40021004 	andmi	r1, r2, r4
 80000a0:	40021018 	andmi	r1, r2, r8, lsl r0
 80000a4:	40011004 	andmi	r1, r1, r4
 80000a8:	4001100c 	andmi	r1, r1, ip
 80000ac:	000ffff0 	strdeq	pc, [pc], -r0
